target datalayout = "e-m:e-p270:32:32-p271:32:32-p272:64:64-i64:64-i128:128-f80:128-n8:16:32:64-S128"
target triple = "x86_64-pc-linux-gnu"

%struct.winsize = type { i16, i16, i16, i16 }
%struct.prte_iof_base_io_conf_t = type { i32, i8, [2 x i32], [2 x i32], [2 x i32] }

@stdout = external global ptr, align 8
@.str = private unnamed_addr constant [37 x i8] c"PMIX ERROR: %s in file %s at line %d\00", align 1
@.str.1 = private unnamed_addr constant [22 x i8] c"base/iof_base_setup.c\00", align 1

; Function Attrs: nounwind uwtable
define i32 @prte_iof_base_setup_prefork(ptr noundef %0) #0 {
  %2 = alloca i32, align 4
  %3 = alloca ptr, align 8
  %4 = alloca i32, align 4
  %5 = alloca ptr, align 8
  %6 = alloca %struct.winsize, align 2
  %7 = alloca i32, align 4
  store ptr %0, ptr %3, align 8, !tbaa !3
  call void @llvm.lifetime.start.p0(i64 4, ptr %4) #4
  store i32 -1, ptr %4, align 4, !tbaa !8
  %8 = load ptr, ptr @stdout, align 8, !tbaa !10
  %9 = call i32 @fflush(ptr noundef %8)
  %10 = load ptr, ptr %3, align 8, !tbaa !3
  %11 = getelementptr inbounds nuw %struct.prte_iof_base_io_conf_t, ptr %10, i32 0, i32 0
  %12 = load i32, ptr %11, align 4, !tbaa !12
  %13 = icmp ne i32 %12, 0
  br i1 %13, label %14, label %27

14:                                               ; preds = %1
  call void @llvm.lifetime.start.p0(i64 8, ptr %5) #4
  store ptr null, ptr %5, align 8, !tbaa !15
  call void @llvm.lifetime.start.p0(i64 8, ptr %6) #4
  %15 = call i32 (i32, i64, ...) @ioctl(i32 noundef 1, i64 noundef 21523, ptr noundef %6) #4
  %16 = icmp eq i32 0, %15
  br i1 %16, label %17, label %18

17:                                               ; preds = %14
  store ptr %6, ptr %5, align 8, !tbaa !15
  br label %18

18:                                               ; preds = %17, %14
  %19 = load ptr, ptr %3, align 8, !tbaa !3
  %20 = getelementptr inbounds nuw %struct.prte_iof_base_io_conf_t, ptr %19, i32 0, i32 3
  %21 = getelementptr inbounds [2 x i32], ptr %20, i64 0, i64 0
  %22 = load ptr, ptr %3, align 8, !tbaa !3
  %23 = getelementptr inbounds nuw %struct.prte_iof_base_io_conf_t, ptr %22, i32 0, i32 3
  %24 = getelementptr inbounds [2 x i32], ptr %23, i64 0, i64 1
  %25 = load ptr, ptr %5, align 8, !tbaa !15
  %26 = call i32 @pmix_openpty(ptr noundef %21, ptr noundef %24, ptr noundef null, ptr noundef null, ptr noundef %25)
  store i32 %26, ptr %4, align 4, !tbaa !8
  call void @llvm.lifetime.end.p0(i64 8, ptr %6) #4
  call void @llvm.lifetime.end.p0(i64 8, ptr %5) #4
  br label %27

27:                                               ; preds = %18, %1
  %28 = load i32, ptr %4, align 4, !tbaa !8
  %29 = icmp slt i32 %28, 0
  br i1 %29, label %30, label %44

30:                                               ; preds = %27
  %31 = load ptr, ptr %3, align 8, !tbaa !3
  %32 = getelementptr inbounds nuw %struct.prte_iof_base_io_conf_t, ptr %31, i32 0, i32 0
  store i32 0, ptr %32, align 4, !tbaa !12
  %33 = load ptr, ptr %3, align 8, !tbaa !3
  %34 = getelementptr inbounds nuw %struct.prte_iof_base_io_conf_t, ptr %33, i32 0, i32 3
  %35 = getelementptr inbounds [2 x i32], ptr %34, i64 0, i64 0
  %36 = call i32 @pipe(ptr noundef %35) #4
  %37 = icmp slt i32 %36, 0
  br i1 %37, label %38, label %43

38:                                               ; preds = %30
  br label %39

39:                                               ; preds = %38
  %40 = call ptr @PMIx_Error_string(i32 noundef -70)
  call void (i32, ptr, ...) @pmix_output(i32 noundef 0, ptr noundef @.str, ptr noundef %40, ptr noundef @.str.1, i32 noundef 119)
  br label %41

41:                                               ; preds = %39
  br label %42

42:                                               ; preds = %41
  store i32 -70, ptr %2, align 4
  store i32 1, ptr %7, align 4
  br label %73

43:                                               ; preds = %30
  br label %44

44:                                               ; preds = %43, %27
  %45 = load ptr, ptr %3, align 8, !tbaa !3
  %46 = getelementptr inbounds nuw %struct.prte_iof_base_io_conf_t, ptr %45, i32 0, i32 1
  %47 = load i8, ptr %46, align 4, !tbaa !17, !range !18, !noundef !19
  %48 = trunc i8 %47 to i1
  br i1 %48, label %49, label %61

49:                                               ; preds = %44
  %50 = load ptr, ptr %3, align 8, !tbaa !3
  %51 = getelementptr inbounds nuw %struct.prte_iof_base_io_conf_t, ptr %50, i32 0, i32 2
  %52 = getelementptr inbounds [2 x i32], ptr %51, i64 0, i64 0
  %53 = call i32 @pipe(ptr noundef %52) #4
  %54 = icmp slt i32 %53, 0
  br i1 %54, label %55, label %60

55:                                               ; preds = %49
  br label %56

56:                                               ; preds = %55
  %57 = call ptr @PMIx_Error_string(i32 noundef -70)
  call void (i32, ptr, ...) @pmix_output(i32 noundef 0, ptr noundef @.str, ptr noundef %57, ptr noundef @.str.1, i32 noundef 125)
  br label %58

58:                                               ; preds = %56
  br label %59

59:                                               ; preds = %58
  store i32 -70, ptr %2, align 4
  store i32 1, ptr %7, align 4
  br label %73

60:                                               ; preds = %49
  br label %61

61:                                               ; preds = %60, %44
  %62 = load ptr, ptr %3, align 8, !tbaa !3
  %63 = getelementptr inbounds nuw %struct.prte_iof_base_io_conf_t, ptr %62, i32 0, i32 4
  %64 = getelementptr inbounds [2 x i32], ptr %63, i64 0, i64 0
  %65 = call i32 @pipe(ptr noundef %64) #4
  %66 = icmp slt i32 %65, 0
  br i1 %66, label %67, label %72

67:                                               ; preds = %61
  br label %68

68:                                               ; preds = %67
  %69 = call ptr @PMIx_Error_string(i32 noundef -70)
  call void (i32, ptr, ...) @pmix_output(i32 noundef 0, ptr noundef @.str, ptr noundef %69, ptr noundef @.str.1, i32 noundef 130)
  br label %70

70:                                               ; preds = %68
  br label %71

71:                                               ; preds = %70
  store i32 -70, ptr %2, align 4
  store i32 1, ptr %7, align 4
  br label %73

72:                                               ; preds = %61
  store i32 0, ptr %2, align 4
  store i32 1, ptr %7, align 4
  br label %73

73:                                               ; preds = %72, %71, %59, %42
  call void @llvm.lifetime.end.p0(i64 4, ptr %4) #4
  %74 = load i32, ptr %2, align 4
  ret i32 %74
}