; Function Attrs: nounwind uwtable
define range(i32 -70, 1) i32 @prte_iof_base_setup_prefork(ptr noundef %0) local_unnamed_addr #0 {
  %2 = alloca %struct.winsize, align 2
  %3 = load ptr, ptr @stdout, align 8, !tbaa !3
  %4 = tail call i32 @fflush(ptr noundef %3)
  %5 = load i32, ptr %0, align 4, !tbaa !8
  %.not = icmp eq i32 %5, 0
  br i1 %.not, label %.critedge, label %6

6:                                                ; preds = %1
  call void @llvm.lifetime.start.p0(i64 8, ptr nonnull %2) #6
  %7 = call i32 (i32, i64, ...) @ioctl(i32 noundef 1, i64 noundef 21523, ptr noundef nonnull %2) #6
  %8 = icmp eq i32 %7, 0
  %spec.select = select i1 %8, ptr %2, ptr null
  %9 = getelementptr inbounds nuw i8, ptr %0, i64 16
  %10 = getelementptr inbounds nuw i8, ptr %0, i64 20
  %11 = call i32 @pmix_openpty(ptr noundef nonnull %9, ptr noundef nonnull %10, ptr noundef null, ptr noundef null, ptr noundef %spec.select) #6
  call void @llvm.lifetime.end.p0(i64 8, ptr nonnull %2) #6
  %12 = icmp slt i32 %11, 0
  br i1 %12, label %.critedge, label %16

.critedge:                                        ; preds = %1, %6
  store i32 0, ptr %0, align 4, !tbaa !8
  %13 = getelementptr inbounds nuw i8, ptr %0, i64 16
  %14 = call i32 @pipe(ptr noundef nonnull %13) #6
  %15 = icmp slt i32 %14, 0
  br i1 %15, label %.sink.split, label %16

16:                                               ; preds = %.critedge, %6
  %17 = getelementptr inbounds nuw i8, ptr %0, i64 4
  %18 = load i8, ptr %17, align 4, !tbaa !12, !range !13, !noundef !14
  %19 = trunc nuw i8 %18 to i1
  br i1 %19, label %20, label %24

20:                                               ; preds = %16
  %21 = getelementptr inbounds nuw i8, ptr %0, i64 8
  %22 = call i32 @pipe(ptr noundef nonnull %21) #6
  %23 = icmp slt i32 %22, 0
  br i1 %23, label %.sink.split, label %24

24:                                               ; preds = %20, %16
  %25 = getelementptr inbounds nuw i8, ptr %0, i64 24
  %26 = call i32 @pipe(ptr noundef nonnull %25) #6
  %27 = icmp slt i32 %26, 0
  br i1 %27, label %.sink.split, label %29

.sink.split:                                      ; preds = %24, %20, %.critedge
  %.sink12 = phi i32 [ 119, %.critedge ], [ 125, %20 ], [ 130, %24 ]
  %28 = call ptr @PMIx_Error_string(i32 noundef -70) #6
  call void (i32, ptr, ...) @pmix_output(i32 noundef 0, ptr noundef nonnull @.str, ptr noundef %28, ptr noundef nonnull @.str.1, i32 noundef %.sink12) #6
  br label %29

29:                                               ; preds = %.sink.split, %24
  %.011 = phi i32 [ 0, %24 ], [ -70, %.sink.split ]
  ret i32 %.011
}